; ModuleID = 'source-C-CXX/46/198.c'
source_filename = "source-C-CXX/46/198.c"
target datalayout = "e-m:e-p270:32:32-p271:32:32-p272:64:64-i64:64-f80:128-n8:16:32:64-S128"
target triple = "x86_64-pc-linux-gnu"

@.str = private unnamed_addr constant [3 x i8] c"%d\00", align 1
@.str.1 = private unnamed_addr constant [5 x i8] c"%d%s\00", align 1
@.str.2 = private unnamed_addr constant [1 x i8] zeroinitializer, align 1
@.str.3 = private unnamed_addr constant [2 x i8] c" \00", align 1

; Function Attrs: nofree nounwind sspstrong uwtable
define dso_local void @main() local_unnamed_addr #0 {
  %1 = alloca i32, align 4
  %2 = alloca [100 x i32], align 16
  %3 = bitcast i32* %1 to i8*
  call void @llvm.lifetime.start.p0i8(i64 4, i8* nonnull %3) #3
  %4 = bitcast [100 x i32]* %2 to i8*
  call void @llvm.lifetime.start.p0i8(i64 400, i8* nonnull %4) #3
  %5 = call i32 (i8*, ...) @__isoc99_scanf(i8* getelementptr inbounds ([3 x i8], [3 x i8]* @.str, i64 0, i64 0), i32* nonnull %1)
  %6 = getelementptr inbounds [100 x i32], [100 x i32]* %2, i64 0, i64 0
  %7 = load i32, i32* %1, align 4, !tbaa !5
  %8 = icmp sgt i32 %7, 0
  br i1 %8, label %20, label %70

9:                                                ; preds = %20
  %10 = sext i32 %25 to i64
  %11 = getelementptr inbounds [100 x i32], [100 x i32]* %2, i64 0, i64 %10
  %12 = icmp sgt i32 %25, 1
  br i1 %12, label %13, label %37

13:                                               ; preds = %9
  %14 = lshr i32 %25, 1
  %15 = zext i32 %14 to i64
  %16 = and i64 %15, 1
  %17 = icmp eq i32 %14, 1
  br i1 %17, label %28, label %18

18:                                               ; preds = %13
  %19 = and i64 %15, 2147483646
  br label %39

20:                                               ; preds = %0, %20
  %21 = phi i64 [ %24, %20 ], [ 0, %0 ]
  %22 = getelementptr inbounds [100 x i32], [100 x i32]* %2, i64 0, i64 %21
  %23 = call i32 (i8*, ...) @__isoc99_scanf(i8* getelementptr inbounds ([3 x i8], [3 x i8]* @.str, i64 0, i64 0), i32* nonnull %22)
  %24 = add nuw nsw i64 %21, 1
  %25 = load i32, i32* %1, align 4, !tbaa !5
  %26 = sext i32 %25 to i64
  %27 = icmp slt i64 %24, %26
  br i1 %27, label %20, label %9, !llvm.loop !9

28:                                               ; preds = %39, %13
  %29 = phi i64 [ 0, %13 ], [ %53, %39 ]
  %30 = icmp eq i64 %16, 0
  br i1 %30, label %37, label %31

31:                                               ; preds = %28
  %32 = getelementptr inbounds [100 x i32], [100 x i32]* %2, i64 0, i64 %29
  %33 = load i32, i32* %32, align 4, !tbaa !5
  %34 = xor i64 %29, -1
  %35 = getelementptr inbounds i32, i32* %11, i64 %34
  %36 = load i32, i32* %35, align 4, !tbaa !5
  store i32 %36, i32* %32, align 4, !tbaa !5
  store i32 %33, i32* %35, align 4, !tbaa !5
  br label %37

37:                                               ; preds = %31, %28, %9
  %38 = icmp sgt i32 %25, 0
  br i1 %38, label %56, label %70

39:                                               ; preds = %39, %18
  %40 = phi i64 [ 0, %18 ], [ %53, %39 ]
  %41 = phi i64 [ %19, %18 ], [ %54, %39 ]
  %42 = getelementptr inbounds [100 x i32], [100 x i32]* %2, i64 0, i64 %40
  %43 = load i32, i32* %42, align 8, !tbaa !5
  %44 = xor i64 %40, -1
  %45 = getelementptr inbounds i32, i32* %11, i64 %44
  %46 = load i32, i32* %45, align 4, !tbaa !5
  store i32 %46, i32* %42, align 8, !tbaa !5
  store i32 %43, i32* %45, align 4, !tbaa !5
  %47 = or i64 %40, 1
  %48 = getelementptr inbounds [100 x i32], [100 x i32]* %2, i64 0, i64 %47
  %49 = load i32, i32* %48, align 4, !tbaa !5
  %50 = sub nuw nsw i64 -2, %40
  %51 = getelementptr inbounds i32, i32* %11, i64 %50
  %52 = load i32, i32* %51, align 4, !tbaa !5
  store i32 %52, i32* %48, align 4, !tbaa !5
  store i32 %49, i32* %51, align 4, !tbaa !5
  %53 = add nuw nsw i64 %40, 2
  %54 = add i64 %41, -2
  %55 = icmp eq i64 %54, 0
  br i1 %55, label %28, label %39, !llvm.loop !11

56:                                               ; preds = %37, %56
  %57 = phi i64 [ %67, %56 ], [ %10, %37 ]
  %58 = phi i32* [ %65, %56 ], [ %6, %37 ]
  %59 = getelementptr inbounds [100 x i32], [100 x i32]* %2, i64 0, i64 %57
  %60 = load i32, i32* %58, align 4, !tbaa !5
  %61 = getelementptr inbounds i32, i32* %59, i64 -1
  %62 = icmp eq i32* %58, %61
  %63 = select i1 %62, i8* getelementptr inbounds ([1 x i8], [1 x i8]* @.str.2, i64 0, i64 0), i8* getelementptr inbounds ([2 x i8], [2 x i8]* @.str.3, i64 0, i64 0)
  %64 = call i32 (i8*, ...) @printf(i8* nonnull dereferenceable(1) getelementptr inbounds ([5 x i8], [5 x i8]* @.str.1, i64 0, i64 0), i32 %60, i8* %63)
  %65 = getelementptr inbounds i32, i32* %58, i64 1
  %66 = load i32, i32* %1, align 4, !tbaa !5
  %67 = sext i32 %66 to i64
  %68 = getelementptr inbounds [100 x i32], [100 x i32]* %2, i64 0, i64 %67
  %69 = icmp ult i32* %65, %68
  br i1 %69, label %56, label %70, !llvm.loop !12

70:                                               ; preds = %56, %0, %37
  call void @llvm.lifetime.end.p0i8(i64 400, i8* nonnull %4) #3
  call void @llvm.lifetime.end.p0i8(i64 4, i8* nonnull %3) #3
  ret void
}

; Function Attrs: argmemonly mustprogress nofree nosync nounwind willreturn
declare void @llvm.lifetime.start.p0i8(i64 immarg, i8* nocapture) #1

; Function Attrs: nofree nounwind
declare noundef i32 @__isoc99_scanf(i8* nocapture noundef readonly, ...) local_unnamed_addr #2

; Function Attrs: nofree nounwind
declare noundef i32 @printf(i8* nocapture noundef readonly, ...) local_unnamed_addr #2

; Function Attrs: argmemonly mustprogress nofree nosync nounwind willreturn
declare void @llvm.lifetime.end.p0i8(i64 immarg, i8* nocapture) #1


!llvm.module.flags = !{!0, !1, !2, !3}
!llvm.ident = !{!4}

!0 = !{i32 1, !"wchar_size", i32 4}
!1 = !{i32 7, !"PIC Level", i32 2}
!2 = !{i32 7, !"PIE Level", i32 2}
!3 = !{i32 7, !"uwtable", i32 1}
!4 = !{!"clang version 13.0.0"}
!5 = !{!6, !6, i64 0}
!6 = !{!"int", !7, i64 0}
!7 = !{!"omnipotent char", !8, i64 0}
!8 = !{!"Simple C/C++ TBAA"}
!9 = distinct !{!9, !10}
!10 = !{!"llvm.loop.mustprogress"}
!11 = distinct !{!11, !10}
!12 = distinct !{!12, !10}
